; Function Attrs: mustprogress nofree nounwind willreturn memory(write, argmem: readwrite) uwtable
define noundef double @_ZNK8QuantLib12AbcdFunction21instantaneousVarianceEdd(ptr nocapture noundef nonnull readonly align 8 dereferenceable(136) %this, double noundef %u, double noundef %T) local_unnamed_addr #2 align 2 {
entry:
  %sub.i = fsub double %T, %u
  %cmp.i.i = fcmp olt double %sub.i, 0.000000e+00
  br i1 %cmp.i.i, label %_ZNK8QuantLib12AbcdFunction23instantaneousCovarianceEddd.exit, label %cond.false.i3.i

cond.false.i3.i:                                  ; preds = %entry
  %0 = load double, ptr %this, align 8, !tbaa !3
  %b_.i.i = getelementptr inbounds nuw i8, ptr %this, i64 8
  %1 = load double, ptr %b_.i.i, align 8, !tbaa !13
  %2 = tail call double @llvm.fmuladd.f64(double %1, double %sub.i, double %0)
  %c_.i.i = getelementptr inbounds nuw i8, ptr %this, i64 16
  %3 = load double, ptr %c_.i.i, align 8, !tbaa !14
  %fneg.i.i = fneg double %3
  %mul.i.i = fmul double %sub.i, %fneg.i.i
  %call.i.i = tail call double @exp(double noundef %mul.i.i) #19, !tbaa !15
  %d_.i.i = getelementptr inbounds nuw i8, ptr %this, i64 24
  %4 = load double, ptr %d_.i.i, align 8, !tbaa !17
  %5 = tail call double @llvm.fmuladd.f64(double %2, double %call.i.i, double %4)
  %call.i8.i = tail call double @exp(double noundef %mul.i.i) #19, !tbaa !15
  %6 = tail call double @llvm.fmuladd.f64(double %2, double %call.i8.i, double %4)
  %7 = fmul double %5, %6
  br label %_ZNK8QuantLib12AbcdFunction23instantaneousCovarianceEddd.exit

_ZNK8QuantLib12AbcdFunction23instantaneousCovarianceEddd.exit: ; preds = %entry, %cond.false.i3.i
  %mul.i = phi double [ %7, %cond.false.i3.i ], [ 0.000000e+00, %entry ]
  ret double %mul.i
}